target datalayout = "e-m:e-p270:32:32-p271:32:32-p272:64:64-i64:64-i128:128-f80:128-n8:16:32:64-S128"
target triple = "x86_64-pc-linux-gnu"

%struct.mbedtls_ssl_context = type { ptr, i32, i32, i32, i32, i32, ptr, ptr, ptr, ptr, ptr, ptr, ptr, ptr, ptr, ptr, ptr, ptr, ptr, ptr, ptr, ptr, ptr, ptr, ptr, ptr, ptr, ptr, ptr, ptr, ptr, ptr, ptr, i32, i64, i64, i16, i64, i64, i64, i64, i32, i32, i8, i8, i32, i8, ptr, ptr, ptr, ptr, ptr, ptr, ptr, i32, i64, i64, [8 x i8], i16, ptr, ptr, ptr, i64, i32, i64, [12 x i8], [12 x i8], [32 x i8], i8, i8, ptr, ptr, %union.mbedtls_ssl_user_data_t }
%union.mbedtls_ssl_user_data_t = type { i64 }
%struct.mbedtls_ssl_config = type { i32, i32, i8, i8, i8, i8, i8, i8, i8, i8, i8, i8, i16, i8, i8, i8, ptr, i32, ptr, ptr, ptr, ptr, ptr, ptr, ptr, ptr, ptr, ptr, ptr, ptr, ptr, ptr, ptr, ptr, ptr, ptr, ptr, i64, ptr, ptr, ptr, ptr, ptr, ptr, ptr, ptr, %struct.mbedtls_mpi, %struct.mbedtls_mpi, ptr, i64, ptr, i64, ptr, i32, i32, i32, i32, [8 x i8], i32, i32, %union.mbedtls_ssl_user_data_t, ptr, ptr }
%struct.mbedtls_mpi = type { ptr, i16, i16 }
%struct.mbedtls_ssl_handshake_params = type { i8, i8, i8, i8, i8, i32, i8, i8, i8, i8, ptr, ptr, ptr, ptr, ptr, i8, i8, i8, i8, i16, i16, [20 x i16], ptr, ptr, %struct.mbedtls_dhm_context, %struct.mbedtls_ecdh_context, i16, i64, i32, i8, [1024 x i8], i64, ptr, ptr, i64, i16, ptr, ptr, ptr, ptr, %struct.anon, ptr, i16, i8, i32, i32, i32, ptr, ptr, ptr, i32, ptr, [8 x i8], i8, [32 x i8], i8, i16, %struct.mbedtls_md_context_t, %struct.mbedtls_md_context_t, i16, i8, %union.anon.1, [64 x i8], [1076 x i8], i64, i32, i32, i8, ptr, ptr, %union.anon.4, %struct.mbedtls_ssl_tls13_handshake_secrets, ptr, i64, ptr }
%struct.mbedtls_dhm_context = type { %struct.mbedtls_mpi, %struct.mbedtls_mpi, %struct.mbedtls_mpi, %struct.mbedtls_mpi, %struct.mbedtls_mpi, %struct.mbedtls_mpi, %struct.mbedtls_mpi, %struct.mbedtls_mpi, %struct.mbedtls_mpi, %struct.mbedtls_mpi }
%struct.mbedtls_ecdh_context = type { i8, i32, i32, %union.anon }
%union.anon = type { %struct.mbedtls_ecdh_context_mbed }
%struct.mbedtls_ecdh_context_mbed = type { %struct.mbedtls_ecp_group, %struct.mbedtls_mpi, %struct.mbedtls_ecp_point, %struct.mbedtls_ecp_point, %struct.mbedtls_mpi }
%struct.mbedtls_ecp_group = type { i32, %struct.mbedtls_mpi, %struct.mbedtls_mpi, %struct.mbedtls_mpi, %struct.mbedtls_ecp_point, %struct.mbedtls_mpi, i64, i64, i32, ptr, ptr, ptr, ptr, ptr, i64 }
%struct.mbedtls_ecp_point = type { %struct.mbedtls_mpi, %struct.mbedtls_mpi, %struct.mbedtls_mpi }
%struct.anon = type { i64, i8, [4 x %struct.mbedtls_ssl_hs_buffer], %struct.anon.0 }
%struct.mbedtls_ssl_hs_buffer = type { i8, ptr, i64 }
%struct.anon.0 = type { ptr, i64, i32 }
%struct.mbedtls_md_context_t = type { ptr, ptr, ptr }
%union.anon.1 = type { %struct.anon.2 }
%struct.anon.2 = type { i8, [64 x i8], i64 }
%union.anon.4 = type { [64 x i8] }
%struct.mbedtls_ssl_tls13_handshake_secrets = type { [64 x i8], [64 x i8] }
%struct.mbedtls_ssl_session = type { i8, i8, i8, i32, i64, i32, i64, [32 x i8], [48 x i8], ptr, i32, ptr, i64, i32, i64, i32, i8, i8, [48 x i8], ptr, i64, i32, %struct.mbedtls_ssl_tls13_application_secrets }
%struct.mbedtls_ssl_tls13_application_secrets = type { [64 x i8], [64 x i8], [64 x i8], [64 x i8] }

@.str = private unnamed_addr constant [130 x i8] c"generated/home/dtcxzyw/WorkSpace/Projects/compilers/llvm-opt-benchmark/bench/lief/bench_build/mbed_src/library/ssl_tls12_server.c\00", align 1
@.str.63 = private unnamed_addr constant [19 x i8] c"ticket length: %zu\00", align 1
@.str.64 = private unnamed_addr constant [31 x i8] c"ticket rejected: renegotiating\00", align 1
@.str.65 = private unnamed_addr constant [24 x i8] c"ticket is not authentic\00", align 1
@.str.66 = private unnamed_addr constant [18 x i8] c"ticket is expired\00", align 1
@.str.67 = private unnamed_addr constant [25 x i8] c"mbedtls_ssl_ticket_parse\00", align 1
@.str.68 = private unnamed_addr constant [42 x i8] c"session successfully restored from ticket\00", align 1

; Function Attrs: nounwind uwtable
define internal i32 @ssl_parse_session_ticket_ext(ptr noundef %0, ptr noundef %1, i64 noundef %2) #0 {
  %4 = alloca i32, align 4
  %5 = alloca ptr, align 8
  %6 = alloca ptr, align 8
  %7 = alloca i64, align 8
  %8 = alloca i32, align 4
  %9 = alloca %struct.mbedtls_ssl_session, align 8
  %10 = alloca i32, align 4
  store ptr %0, ptr %5, align 8, !tbaa !3
  store ptr %1, ptr %6, align 8, !tbaa !8
  store i64 %2, ptr %7, align 8, !tbaa !10
  call void @llvm.lifetime.start.p0(i64 4, ptr %8) #10
  store i32 -110, ptr %8, align 4, !tbaa !39
  call void @llvm.lifetime.start.p0(i64 496, ptr %9) #10
  call void @mbedtls_ssl_session_init(ptr noundef %9)
  %11 = load ptr, ptr %5, align 8, !tbaa !3
  %12 = getelementptr inbounds nuw %struct.mbedtls_ssl_context, ptr %11, i32 0, i32 0
  %13 = load ptr, ptr %12, align 8, !tbaa !12
  %14 = getelementptr inbounds nuw %struct.mbedtls_ssl_config, ptr %13, i32 0, i32 35
  %15 = load ptr, ptr %14, align 8, !tbaa !151
  %16 = icmp eq ptr %15, null
  br i1 %16, label %24, label %17

17:                                               ; preds = %3
  %18 = load ptr, ptr %5, align 8, !tbaa !3
  %19 = getelementptr inbounds nuw %struct.mbedtls_ssl_context, ptr %18, i32 0, i32 0
  %20 = load ptr, ptr %19, align 8, !tbaa !12
  %21 = getelementptr inbounds nuw %struct.mbedtls_ssl_config, ptr %20, i32 0, i32 34
  %22 = load ptr, ptr %21, align 8, !tbaa !136
  %23 = icmp eq ptr %22, null
  br i1 %23, label %24, label %25

24:                                               ; preds = %17, %3
  store i32 0, ptr %4, align 4
  store i32 1, ptr %10, align 4
  br label %102

25:                                               ; preds = %17
  %26 = load ptr, ptr %5, align 8, !tbaa !3
  %27 = getelementptr inbounds nuw %struct.mbedtls_ssl_context, ptr %26, i32 0, i32 16
  %28 = load ptr, ptr %27, align 8, !tbaa !41
  %29 = getelementptr inbounds nuw %struct.mbedtls_ssl_handshake_params, ptr %28, i32 0, i32 4
  store i8 1, ptr %29, align 4, !tbaa !42
  %30 = load ptr, ptr %5, align 8, !tbaa !3
  %31 = load i64, ptr %7, align 8, !tbaa !10
  call void (ptr, i32, ptr, i32, ptr, ...) @mbedtls_debug_print_msg(ptr noundef %30, i32 noundef 3, ptr noundef @.str, i32 noundef 487, ptr noundef @.str.63, i64 noundef %31)
  %32 = load i64, ptr %7, align 8, !tbaa !10
  %33 = icmp eq i64 %32, 0
  br i1 %33, label %34, label %35

34:                                               ; preds = %25
  store i32 0, ptr %4, align 4
  store i32 1, ptr %10, align 4
  br label %102

35:                                               ; preds = %25
  %36 = load ptr, ptr %5, align 8, !tbaa !3
  %37 = getelementptr inbounds nuw %struct.mbedtls_ssl_context, ptr %36, i32 0, i32 2
  %38 = load i32, ptr %37, align 4, !tbaa !53
  %39 = icmp ne i32 %38, 0
  br i1 %39, label %40, label %42

40:                                               ; preds = %35
  %41 = load ptr, ptr %5, align 8, !tbaa !3
  call void (ptr, i32, ptr, i32, ptr, ...) @mbedtls_debug_print_msg(ptr noundef %41, i32 noundef 3, ptr noundef @.str, i32 noundef 495, ptr noundef @.str.64)
  store i32 0, ptr %4, align 4
  store i32 1, ptr %10, align 4
  br label %102

42:                                               ; preds = %35
  %43 = load ptr, ptr %5, align 8, !tbaa !3
  %44 = getelementptr inbounds nuw %struct.mbedtls_ssl_context, ptr %43, i32 0, i32 0
  %45 = load ptr, ptr %44, align 8, !tbaa !12
  %46 = getelementptr inbounds nuw %struct.mbedtls_ssl_config, ptr %45, i32 0, i32 35
  %47 = load ptr, ptr %46, align 8, !tbaa !151
  %48 = load ptr, ptr %5, align 8, !tbaa !3
  %49 = getelementptr inbounds nuw %struct.mbedtls_ssl_context, ptr %48, i32 0, i32 0
  %50 = load ptr, ptr %49, align 8, !tbaa !12
  %51 = getelementptr inbounds nuw %struct.mbedtls_ssl_config, ptr %50, i32 0, i32 36
  %52 = load ptr, ptr %51, align 8, !tbaa !137
  %53 = load ptr, ptr %6, align 8, !tbaa !8
  %54 = load i64, ptr %7, align 8, !tbaa !10
  %55 = call i32 %47(ptr noundef %52, ptr noundef %9, ptr noundef %53, i64 noundef %54)
  store i32 %55, ptr %8, align 4, !tbaa !39
  %56 = icmp ne i32 %55, 0
  br i1 %56, label %57, label %72

57:                                               ; preds = %42
  call void @mbedtls_ssl_session_free(ptr noundef %9)
  %58 = load i32, ptr %8, align 4, !tbaa !39
  %59 = icmp eq i32 %58, -29056
  br i1 %59, label %60, label %62

60:                                               ; preds = %57
  %61 = load ptr, ptr %5, align 8, !tbaa !3
  call void (ptr, i32, ptr, i32, ptr, ...) @mbedtls_debug_print_msg(ptr noundef %61, i32 noundef 3, ptr noundef @.str, i32 noundef 508, ptr noundef @.str.65)
  br label %71

62:                                               ; preds = %57
  %63 = load i32, ptr %8, align 4, !tbaa !39
  %64 = icmp eq i32 %63, -28032
  br i1 %64, label %65, label %67

65:                                               ; preds = %62
  %66 = load ptr, ptr %5, align 8, !tbaa !3
  call void (ptr, i32, ptr, i32, ptr, ...) @mbedtls_debug_print_msg(ptr noundef %66, i32 noundef 3, ptr noundef @.str, i32 noundef 510, ptr noundef @.str.66)
  br label %70

67:                                               ; preds = %62
  %68 = load ptr, ptr %5, align 8, !tbaa !3
  %69 = load i32, ptr %8, align 4, !tbaa !39
  call void @mbedtls_debug_print_ret(ptr noundef %68, i32 noundef 1, ptr noundef @.str, i32 noundef 512, ptr noundef @.str.67, i32 noundef %69)
  br label %70

70:                                               ; preds = %67, %65
  br label %71

71:                                               ; preds = %70, %60
  store i32 0, ptr %4, align 4
  store i32 1, ptr %10, align 4
  br label %102

72:                                               ; preds = %42
  %73 = load ptr, ptr %5, align 8, !tbaa !3
  %74 = getelementptr inbounds nuw %struct.mbedtls_ssl_context, ptr %73, i32 0, i32 15
  %75 = load ptr, ptr %74, align 8, !tbaa !68
  %76 = getelementptr inbounds nuw %struct.mbedtls_ssl_session, ptr %75, i32 0, i32 6
  %77 = load i64, ptr %76, align 8, !tbaa !73
  %78 = getelementptr inbounds nuw %struct.mbedtls_ssl_session, ptr %9, i32 0, i32 6
  store i64 %77, ptr %78, align 8, !tbaa !73
  %79 = getelementptr inbounds nuw %struct.mbedtls_ssl_session, ptr %9, i32 0, i32 7
  %80 = load ptr, ptr %5, align 8, !tbaa !3
  %81 = getelementptr inbounds nuw %struct.mbedtls_ssl_context, ptr %80, i32 0, i32 15
  %82 = load ptr, ptr %81, align 8, !tbaa !68
  %83 = getelementptr inbounds nuw %struct.mbedtls_ssl_session, ptr %82, i32 0, i32 7
  %84 = getelementptr inbounds [32 x i8], ptr %83, i64 0, i64 0
  %85 = getelementptr inbounds nuw %struct.mbedtls_ssl_session, ptr %9, i32 0, i32 6
  %86 = load i64, ptr %85, align 8, !tbaa !73
  call void @llvm.memcpy.p0.p0.i64(ptr align 8 %79, ptr align 8 %84, i64 %86, i1 false)
  %87 = load ptr, ptr %5, align 8, !tbaa !3
  %88 = getelementptr inbounds nuw %struct.mbedtls_ssl_context, ptr %87, i32 0, i32 15
  %89 = load ptr, ptr %88, align 8, !tbaa !68
  call void @mbedtls_ssl_session_free(ptr noundef %89)
  %90 = load ptr, ptr %5, align 8, !tbaa !3
  %91 = getelementptr inbounds nuw %struct.mbedtls_ssl_context, ptr %90, i32 0, i32 15
  %92 = load ptr, ptr %91, align 8, !tbaa !68
  call void @llvm.memcpy.p0.p0.i64(ptr align 8 %92, ptr align 8 %9, i64 496, i1 false)
  call void @mbedtls_platform_zeroize(ptr noundef %9, i64 noundef 496)
  %93 = load ptr, ptr %5, align 8, !tbaa !3
  call void (ptr, i32, ptr, i32, ptr, ...) @mbedtls_debug_print_msg(ptr noundef %93, i32 noundef 3, ptr noundef @.str, i32 noundef 531, ptr noundef @.str.68)
  %94 = load ptr, ptr %5, align 8, !tbaa !3
  %95 = getelementptr inbounds nuw %struct.mbedtls_ssl_context, ptr %94, i32 0, i32 16
  %96 = load ptr, ptr %95, align 8, !tbaa !41
  %97 = getelementptr inbounds nuw %struct.mbedtls_ssl_handshake_params, ptr %96, i32 0, i32 0
  store i8 1, ptr %97, align 8, !tbaa !100
  %98 = load ptr, ptr %5, align 8, !tbaa !3
  %99 = getelementptr inbounds nuw %struct.mbedtls_ssl_context, ptr %98, i32 0, i32 16
  %100 = load ptr, ptr %99, align 8, !tbaa !41
  %101 = getelementptr inbounds nuw %struct.mbedtls_ssl_handshake_params, ptr %100, i32 0, i32 4
  store i8 0, ptr %101, align 4, !tbaa !42
  store i32 0, ptr %4, align 4
  store i32 1, ptr %10, align 4
  br label %102

102:                                              ; preds = %72, %71, %40, %34, %24
  call void @llvm.lifetime.end.p0(i64 496, ptr %9) #10
  call void @llvm.lifetime.end.p0(i64 4, ptr %8) #10
  %103 = load i32, ptr %4, align 4
  ret i32 %103
}