; Function Attrs: nounwind uwtable
define internal fastcc void @ssl_parse_session_ticket_ext(ptr noundef %0, ptr noundef %1, i64 noundef range(i64 0, 65536) %2) unnamed_addr #5 {
  %4 = alloca %struct.mbedtls_ssl_session, align 8
  call void @llvm.lifetime.start.p0(i64 496, ptr nonnull %4) #12
  call void @mbedtls_ssl_session_init(ptr noundef nonnull %4) #12
  %5 = load ptr, ptr %0, align 8, !tbaa !3
  %6 = getelementptr inbounds nuw i8, ptr %5, i64 176
  %7 = load ptr, ptr %6, align 8, !tbaa !164
  %8 = icmp eq ptr %7, null
  br i1 %8, label %44, label %9

9:                                                ; preds = %3
  %10 = getelementptr inbounds nuw i8, ptr %5, i64 168
  %11 = load ptr, ptr %10, align 8, !tbaa !155
  %12 = icmp eq ptr %11, null
  br i1 %12, label %44, label %13

13:                                               ; preds = %9
  %14 = getelementptr inbounds nuw i8, ptr %0, i64 112
  %15 = load ptr, ptr %14, align 8, !tbaa !45
  %16 = getelementptr inbounds nuw i8, ptr %15, i64 4
  store i8 1, ptr %16, align 4, !tbaa !103
  call void (ptr, i32, ptr, i32, ptr, ...) @mbedtls_debug_print_msg(ptr noundef nonnull %0, i32 noundef 3, ptr noundef nonnull @.str, i32 noundef 487, ptr noundef nonnull @.str.63, i64 noundef %2) #12
  %17 = icmp eq i64 %2, 0
  br i1 %17, label %44, label %18

18:                                               ; preds = %13
  %19 = getelementptr inbounds nuw i8, ptr %0, i64 12
  %20 = load i32, ptr %19, align 4, !tbaa !34
  %.not = icmp eq i32 %20, 0
  br i1 %.not, label %22, label %21

21:                                               ; preds = %18
  call void (ptr, i32, ptr, i32, ptr, ...) @mbedtls_debug_print_msg(ptr noundef nonnull %0, i32 noundef 3, ptr noundef nonnull @.str, i32 noundef 495, ptr noundef nonnull @.str.64) #12
  br label %44

22:                                               ; preds = %18
  %23 = load ptr, ptr %0, align 8, !tbaa !3
  %24 = getelementptr inbounds nuw i8, ptr %23, i64 176
  %25 = load ptr, ptr %24, align 8, !tbaa !164
  %26 = getelementptr inbounds nuw i8, ptr %23, i64 184
  %27 = load ptr, ptr %26, align 8, !tbaa !156
  %28 = call i32 %25(ptr noundef %27, ptr noundef nonnull %4, ptr noundef %1, i64 noundef %2) #12
  %.not26 = icmp eq i32 %28, 0
  br i1 %.not26, label %33, label %29

29:                                               ; preds = %22
  call void @mbedtls_ssl_session_free(ptr noundef nonnull %4) #12
  switch i32 %28, label %32 [
    i32 -29056, label %30
    i32 -28032, label %31
  ]

30:                                               ; preds = %29
  call void (ptr, i32, ptr, i32, ptr, ...) @mbedtls_debug_print_msg(ptr noundef nonnull %0, i32 noundef 3, ptr noundef nonnull @.str, i32 noundef 508, ptr noundef nonnull @.str.65) #12
  br label %44

31:                                               ; preds = %29
  call void (ptr, i32, ptr, i32, ptr, ...) @mbedtls_debug_print_msg(ptr noundef nonnull %0, i32 noundef 3, ptr noundef nonnull @.str, i32 noundef 510, ptr noundef nonnull @.str.66) #12
  br label %44

32:                                               ; preds = %29
  call void @mbedtls_debug_print_ret(ptr noundef nonnull %0, i32 noundef 1, ptr noundef nonnull @.str, i32 noundef 512, ptr noundef nonnull @.str.67, i32 noundef %28) #12
  br label %44

33:                                               ; preds = %22
  %34 = getelementptr inbounds nuw i8, ptr %0, i64 104
  %35 = load ptr, ptr %34, align 8, !tbaa !60
  %36 = getelementptr inbounds nuw i8, ptr %35, i64 24
  %37 = load i64, ptr %36, align 8, !tbaa !65
  %38 = getelementptr inbounds nuw i8, ptr %4, i64 24
  store i64 %37, ptr %38, align 8, !tbaa !65
  %39 = getelementptr inbounds nuw i8, ptr %4, i64 32
  %40 = getelementptr inbounds nuw i8, ptr %35, i64 32
  call void @llvm.memcpy.p0.p0.i64(ptr nonnull align 8 %39, ptr nonnull align 8 %40, i64 %37, i1 false)
  call void @mbedtls_ssl_session_free(ptr noundef %35) #12
  %41 = load ptr, ptr %34, align 8, !tbaa !60
  call void @llvm.memcpy.p0.p0.i64(ptr noundef nonnull align 8 dereferenceable(496) %41, ptr noundef nonnull align 8 dereferenceable(496) %4, i64 496, i1 false)
  call void @mbedtls_platform_zeroize(ptr noundef nonnull %4, i64 noundef 496) #12
  call void (ptr, i32, ptr, i32, ptr, ...) @mbedtls_debug_print_msg(ptr noundef nonnull %0, i32 noundef 3, ptr noundef nonnull @.str, i32 noundef 531, ptr noundef nonnull @.str.68) #12
  %42 = load ptr, ptr %14, align 8, !tbaa !45
  store i8 1, ptr %42, align 8, !tbaa !96
  %43 = getelementptr inbounds nuw i8, ptr %42, i64 4
  store i8 0, ptr %43, align 4, !tbaa !103
  br label %44

44:                                               ; preds = %30, %32, %31, %13, %3, %9, %33, %21
  call void @llvm.lifetime.end.p0(i64 496, ptr nonnull %4) #12
  ret void
}